; Function Attrs: nounwind uwtable
define internal void @__cxx_global_array_dtor.18(ptr nocapture readnone %0) #4 section ".text.startup" {
  br label %2

2:                                                ; preds = %2, %1
  %3 = phi ptr [ getelementptr inbounds ([7 x %"class.std::__cxx11::basic_string"], ptr @_ZN12_GLOBAL__N_115cuda_propertiesB5cxx11E, i64 1, i64 0), %1 ], [ %4, %2 ]
  %4 = getelementptr inbounds i8, ptr %3, i64 -32
  tail call void @_ZNSt7__cxx1112basic_stringIcSt11char_traitsIcESaIcEED1Ev(ptr noundef nonnull align 8 dereferenceable(32) %4) #21
  %5 = icmp eq ptr %4, @_ZN12_GLOBAL__N_115cuda_propertiesB5cxx11E
  br i1 %5, label %6, label %2

6:                                                ; preds = %2
  ret void
}